; Function Attrs: mustprogress nounwind uwtable
define hidden void @_ZN10XPageTableC2Ev(ptr nocapture noundef nonnull writeonly align 8 dereferenceable(16) %0) unnamed_addr #0 align 2 {
  %2 = load i64, ptr @XAddressOffsetMax, align 8
  %3 = lshr i64 %2, 21
  store i64 %3, ptr %0, align 8
  %4 = shl nuw nsw i64 %3, 3
  %5 = load i64, ptr @_ZN6OSInfo26_vm_allocation_granularityE, align 8
  %6 = add nsw i64 %4, -1
  %7 = add i64 %6, %5
  %8 = sub i64 0, %5
  %9 = and i64 %7, %8
  %10 = tail call noundef ptr @_ZN2os14reserve_memoryEmb8MEMFLAGS(i64 noundef %9, i1 noundef zeroext false, i8 noundef zeroext 5) #5
  %11 = icmp eq ptr %10, null
  br i1 %11, label %12, label %_ZN11XGranuleMapIP5XPageEC2Em.exit

12:                                               ; preds = %1
  tail call void (ptr, i32, i64, i32, ptr, ...) @_Z23report_vm_out_of_memoryPKcim11VMErrorTypeS0_z(ptr noundef nonnull @.str, i32 noundef 80, i64 noundef %9, i32 noundef -536870910, ptr noundef nonnull @.str.8) #6
  unreachable

_ZN11XGranuleMapIP5XPageEC2Em.exit:               ; preds = %1
  %13 = getelementptr inbounds i8, ptr %0, i64 8
  tail call void @_ZN2os21commit_memory_or_exitEPcmbPKc(ptr noundef nonnull %10, i64 noundef %9, i1 noundef zeroext false, ptr noundef nonnull @.str.9) #5
  store ptr %10, ptr %13, align 8
  ret void
}